(dp1
S'files'
p2
(dp3
S'avocado_tests_cases_core___init__'
p4
(dp5
S'index'
p6
(dp7
S'par'
p8
I0
sS'html_filename'
p9
S'avocado_tests_cases_core___init__.html'
p10
sS'name'
p11
S'avocado/tests/cases/core/__init__'
p12
sS'nums'
p13
ccopy_reg
_reconstructor
p14
(ccoverage.results
Numbers
p15
c__builtin__
object
p16
NtRp17
(dp18
S'n_files'
p19
I1
sS'n_branches'
p20
I0
sS'n_statements'
p21
I2
sS'n_excluded'
p22
I0
sS'n_missing'
p23
I0
sS'n_missing_branches'
p24
I0
sbssS'hash'
p25
S'b\xf1L\xa2<\xe1\x02<?\xac\xfc\xa5\xb4\t\xb0\x19'
p26
ssS'avocado_tests_cases_models'
p27
(dp28
g6
(dp29
g8
I0
sg9
S'avocado_tests_cases_models.html'
p30
sg11
S'avocado/tests/cases/models'
p31
sg13
g14
(g15
g16
NtRp32
(dp33
g19
I1
sg20
I0
sg21
I26
sg22
I0
sg23
I3
sg24
I0
sbssg25
S'\xf6\xcd\xf8\xfb\xc3\xe8m\xe5\xb0\x1b$O\xf2\x06X\x94'
p34
ssS'avocado_exporters__excel'
p35
(dp36
g6
(dp37
g8
I0
sg9
S'avocado_exporters__excel.html'
p38
sg11
S'avocado/exporters/_excel'
p39
sg13
g14
(g15
g16
NtRp40
(dp41
g19
I1
sg20
I0
sg21
I34
sg22
I0
sg23
I30
sg24
I0
sbssg25
S'\x0cz\xf6u&\xf3\x0eC\xcd\x08N.\xcf9\xdb*'
p42
ssS'avocado___init__'
p43
(dp44
g6
(dp45
g8
I0
sg9
S'avocado___init__.html'
p46
sg11
S'avocado/__init__'
p47
sg13
g14
(g15
g16
NtRp48
(dp49
g19
I1
sg20
I0
sg21
I10
sg22
I0
sg23
I0
sg24
I0
sbssg25
S'\xb9\x93\xb5\t\xe3\xb4\xcb\x85\xf1a\x1a\xbf\x17\xc0\x10j'
p50
ssS'avocado_tests___init__'
p51
(dp52
g6
(dp53
g8
I0
sg9
S'avocado_tests___init__.html'
p54
sg11
S'avocado/tests/__init__'
p55
sg13
g14
(g15
g16
NtRp56
(dp57
g19
I1
sg20
I0
sg21
I7
sg22
I0
sg23
I0
sg24
I0
sbssg25
S"\xe7/\xc6F\xb0\xdf4\x01\xcfl'\xc3\x92\xf9\xb3\x82"
p58
ssS'avocado_tests_usda_models'
p59
(dp60
g6
(dp61
g8
I0
sg9
S'avocado_tests_usda_models.html'
p62
sg11
S'avocado/tests/usda_models'
p63
sg13
g14
(g15
g16
NtRp64
(dp65
g19
I1
sg20
I0
sg21
I44
sg22
I0
sg23
I44
sg24
I0
sbssg25
S'\xdc\x12WP\xb05\x9b\x14Y\xa7\xca\r \xee\xa6\x83'
p66
ssS'avocado_tests_cases_core_loader'
p67
(dp68
g6
(dp69
g8
I0
sg9
S'avocado_tests_cases_core_loader.html'
p70
sg11
S'avocado/tests/cases/core/loader'
p71
sg13
g14
(g15
g16
NtRp72
(dp73
g19
I1
sg20
I0
sg21
I31
sg22
I0
sg23
I0
sg24
I0
sbssg25
S'\x92C\x85G\xc3\xf2\xac\xae\x9e)\xe3\xe4x\xeba\xbb'
p74
ssS'avocado_core_decorators'
p75
(dp76
g6
(dp77
g8
I0
sg9
S'avocado_core_decorators.html'
p78
sg11
S'avocado/core/decorators'
p79
sg13
g14
(g15
g16
NtRp80
(dp81
g19
I1
sg20
I0
sg21
I12
sg22
I0
sg23
I0
sg24
I0
sbssg25
S'\xf9\xda\xcb\x9a\xeb:g\xd7\x0c\x8d\xcdt\x01\xa7A '
p82
ssS'avocado_management___init__'
p83
(dp84
g6
(dp85
g8
I0
sg9
S'avocado_management___init__.html'
p86
sg11
S'avocado/management/__init__'
p87
sg13
g14
(g15
g16
NtRp88
(dp89
g19
I1
sg20
I0
sg21
I0
sg22
I0
sg23
I0
sg24
I0
sbssg25
S'\xb0\xc8pN\xaf>\xa0\xbaz\x144\xe0A9\xb8?'
p90
ssS'avocado_core___init__'
p91
(dp92
g6
(dp93
g8
I0
sg9
S'avocado_core___init__.html'
p94
sg11
S'avocado/core/__init__'
p95
sg13
g14
(g15
g16
NtRp96
(dp97
g19
I1
sg20
I0
sg21
I0
sg22
I0
sg23
I0
sg24
I0
sbssg25
S'\xb0\xc8pN\xaf>\xa0\xbaz\x144\xe0A9\xb8?'
p98
ssS'avocado_core_loader'
p99
(dp100
g6
(dp101
g8
I0
sg9
S'avocado_core_loader.html'
p102
sg11
S'avocado/core/loader'
p103
sg13
g14
(g15
g16
NtRp104
(dp105
g19
I1
sg20
I0
sg21
I38
sg22
I0
sg23
I2
sg24
I0
sbssg25
S'\xda\x04\xdd\xb0\x91aC\x9f\xfc\xe6\xd2\xa3\xadf\xfe\xe4'
p106
ssS'avocado_models'
p107
(dp108
g6
(dp109
g8
I0
sg9
S'avocado_models.html'
p110
sg11
S'avocado/models'
p111
sg13
g14
(g15
g16
NtRp112
(dp113
g19
I1
sg20
I0
sg21
I154
sg22
I0
sg23
I49
sg24
I0
sbssg25
S'\xc4\x7f\x9c\x81\x9a\x89\xbd\xbf\xe1\xa6Z\xf1\xabi\xa0\x1f'
p114
ssS'avocado_tests_settings'
p115
(dp116
g6
(dp117
g8
I0
sg9
S'avocado_tests_settings.html'
p118
sg11
S'avocado/tests/settings'
p119
sg13
g14
(g15
g16
NtRp120
(dp121
g19
I1
sg20
I0
sg21
I4
sg22
I0
sg23
I0
sg24
I0
sbssg25
S"\xc3\x13\xc1\x16F\x8cbfV'm'6\xcc\xce\x05"
p122
ssS'avocado_core_mixins'
p123
(dp124
g6
(dp125
g8
I0
sg9
S'avocado_core_mixins.html'
p126
sg11
S'avocado/core/mixins'
p127
sg13
g14
(g15
g16
NtRp128
(dp129
g19
I1
sg20
I0
sg21
I28
sg22
I0
sg23
I28
sg24
I0
sbssg25
S'\x93\xc3\xfe\x82\xab\xe4\x90\xb4\x1eR\xce{\xd52\xe2\xbd'
p130
ssS'avocado_managers'
p131
(dp132
g6
(dp133
g8
I0
sg9
S'avocado_managers.html'
p134
sg11
S'avocado/managers'
p135
sg13
g14
(g15
g16
NtRp136
(dp137
g19
I1
sg20
I0
sg21
I17
sg22
I0
sg23
I6
sg24
I0
sbssg25
S'\xaa\xa2\x97\xd0g\xf0on\xa1\xf0(@I\x82\x95\xeb'
p138
ssS'avocado_tests_cases_translators'
p139
(dp140
g6
(dp141
g8
I0
sg9
S'avocado_tests_cases_translators.html'
p142
sg11
S'avocado/tests/cases/translators'
p143
sg13
g14
(g15
g16
NtRp144
(dp145
g19
I1
sg20
I0
sg21
I10
sg22
I0
sg23
I5
sg24
I0
sbssg25
S'\xf4\x98R\xb9K\x03.&\xd2\x18\x80\xbc%\x97\xec\xec'
p146
ssS'avocado_translators'
p147
(dp148
g6
(dp149
g8
I0
sg9
S'avocado_translators.html'
p150
sg11
S'avocado/translators'
p151
sg13
g14
(g15
g16
NtRp152
(dp153
g19
I1
sg20
I0
sg21
I85
sg22
I0
sg23
I64
sg24
I0
sbssg25
S'C\xf2\xbe\xf2\x074\xeb&nv\xb7\xed\x81\x06\x04\x8f'
p154
ssS'avocado_search_indexes'
p155
(dp156
g6
(dp157
g8
I0
sg9
S'avocado_search_indexes.html'
p158
sg11
S'avocado/search_indexes'
p159
sg13
g14
(g15
g16
NtRp160
(dp161
g19
I1
sg20
I0
sg21
I7
sg22
I0
sg23
I7
sg24
I0
sbssg25
S'`>imc\x04m\x02\x1d\xd9\xd5\xd9?(^\x84'
p162
ssS'avocado_tests_base'
p163
(dp164
g6
(dp165
g8
I0
sg9
S'avocado_tests_base.html'
p166
sg11
S'avocado/tests/base'
p167
sg13
g14
(g15
g16
NtRp168
(dp169
g19
I1
sg20
I0
sg21
I10
sg22
I0
sg23
I0
sg24
I0
sbssg25
S'n\xdb\xaaQi#xN\xc6\x8f\x1e\nr\x12\x89\x00'
p170
ssS'avocado_exporters__sas'
p171
(dp172
g6
(dp173
g8
I0
sg9
S'avocado_exporters__sas.html'
p174
sg11
S'avocado/exporters/_sas'
p175
sg13
g14
(g15
g16
NtRp176
(dp177
g19
I1
sg20
I0
sg21
I89
sg22
I0
sg23
I75
sg24
I0
sbssg25
S'\x18\x10\x85"#\xe3y\x10o%%\xdb\xf0\xc4%\x9a'
p178
ssS'avocado_management_commands_sync'
p179
(dp180
g6
(dp181
g8
I0
sg9
S'avocado_management_commands_sync.html'
p182
sg11
S'avocado/management/commands/sync'
p183
sg13
g14
(g15
g16
NtRp184
(dp185
g19
I1
sg20
I0
sg21
I59
sg22
I0
sg23
I59
sg24
I0
sbssg25
S'9\xe3\xd526ZM\x92|L(\x8d\x1dc\xfe\x04'
p186
ssS'avocado_management_commands___init__'
p187
(dp188
g6
(dp189
g8
I0
sg9
S'avocado_management_commands___init__.html'
p190
sg11
S'avocado/management/commands/__init__'
p191
sg13
g14
(g15
g16
NtRp192
(dp193
g19
I1
sg20
I0
sg21
I0
sg22
I0
sg23
I0
sg24
I0
sbssg25
S'\xe5P\x11)^\xf4>1D.\x0e\x0b\xa1\xf8[+'
p194
ssS'avocado_logictree'
p195
(dp196
g6
(dp197
g8
I0
sg9
S'avocado_logictree.html'
p198
sg11
S'avocado/logictree'
p199
sg13
g14
(g15
g16
NtRp200
(dp201
g19
I1
sg20
I0
sg21
I105
sg22
I0
sg23
I105
sg24
I0
sbssg25
S'+(\x05\x9c\xd7\x1eb\xc4\xc3r@\x1aFS\x1a\xec'
p202
ssS'avocado_tests_cases_formatters'
p203
(dp204
g6
(dp205
g8
I0
sg9
S'avocado_tests_cases_formatters.html'
p206
sg11
S'avocado/tests/cases/formatters'
p207
sg13
g14
(g15
g16
NtRp208
(dp209
g19
I1
sg20
I0
sg21
I45
sg22
I0
sg23
I2
sg24
I0
sbssg25
S"9\x8b\x1e\xec\xc8'\xed\xc7|:\xb1\x1f\xd0\x84%\x85"
p210
ssS'avocado_tests_cases_core_binning'
p211
(dp212
g6
(dp213
g8
I0
sg9
S'avocado_tests_cases_core_binning.html'
p214
sg11
S'avocado/tests/cases/core/binning'
p215
sg13
g14
(g15
g16
NtRp216
(dp217
g19
I1
sg20
I0
sg21
I13
sg22
I0
sg23
I0
sg24
I0
sbssg25
S'\xfcf{\xb0\x15\xc6\xe9\xa9\x1c\xd4\xc0?\x90\xd7\x8f\xe7'
p218
ssS'avocado_exporters___init__'
p219
(dp220
g6
(dp221
g8
I0
sg9
S'avocado_exporters___init__.html'
p222
sg11
S'avocado/exporters/__init__'
p223
sg13
g14
(g15
g16
NtRp224
(dp225
g19
I1
sg20
I0
sg21
I17
sg22
I0
sg23
I1
sg24
I0
sbssg25
S'x\r\x93Y\xca1\x1e1z\xfbn\xd5\xb8>W\xf2'
p226
ssS'avocado_management_commands_avocado'
p227
(dp228
g6
(dp229
g8
I0
sg9
S'avocado_management_commands_avocado.html'
p230
sg11
S'avocado/management/commands/avocado'
p231
sg13
g14
(g15
g16
NtRp232
(dp233
g19
I1
sg20
I0
sg21
I9
sg22
I0
sg23
I9
sg24
I0
sbssg25
S'\x97\xc24 L\x8b\x0b?\xde=T\x1a}t@f'
p234
ssS'avocado_exporters__base'
p235
(dp236
g6
(dp237
g8
I0
sg9
S'avocado_exporters__base.html'
p238
sg11
S'avocado/exporters/_base'
p239
sg13
g14
(g15
g16
NtRp240
(dp241
g19
I1
sg20
I0
sg21
I44
sg22
I0
sg23
I32
sg24
I0
sbssg25
S'\xfb\xa4\x8c8\xa4u\xc9\x8cm\xd02\x04\xb7L\x7f\xc9'
p242
ssS'avocado_search_sites'
p243
(dp244
g6
(dp245
g8
I0
sg9
S'avocado_search_sites.html'
p246
sg11
S'avocado/search_sites'
p247
sg13
g14
(g15
g16
NtRp248
(dp249
g19
I1
sg20
I0
sg21
I2
sg22
I0
sg23
I2
sg24
I0
sbssg25
S'\x0fU\x9d\x12\x1c\x9cu^\xabr\x1c_]/\xe8\x82'
p250
ssS'avocado_tests_cases___init__'
p251
(dp252
g6
(dp253
g8
I0
sg9
S'avocado_tests_cases___init__.html'
p254
sg11
S'avocado/tests/cases/__init__'
p255
sg13
g14
(g15
g16
NtRp256
(dp257
g19
I1
sg20
I0
sg21
I0
sg22
I0
sg23
I0
sg24
I0
sbssg25
S'EM\x82\x89X\xeb\x91?\xa0\x08\xf4\xcb\x0e\xb5b\x8d'
p258
ssS'avocado_formatters'
p259
(dp260
g6
(dp261
g8
I0
sg9
S'avocado_formatters.html'
p262
sg11
S'avocado/formatters'
p263
sg13
g14
(g15
g16
NtRp264
(dp265
g19
I1
sg20
I0
sg21
I73
sg22
I0
sg23
I16
sg24
I0
sbssg25
S'9?\xbd\x85\r\x8d\xeag\xa6\xe3\xbe\x8d\xb7`\x1b\x96'
p266
ssS'avocado_conf_global_settings'
p267
(dp268
g6
(dp269
g8
I0
sg9
S'avocado_conf_global_settings.html'
p270
sg11
S'avocado/conf/global_settings'
p271
sg13
g14
(g15
g16
NtRp272
(dp273
g19
I1
sg20
I0
sg21
I4
sg22
I0
sg23
I0
sg24
I0
sbssg25
S'\xb8\xcbWv\x10\xf0b~xN\xa5\x1e\x833\xfa\x14'
p274
ssS'avocado_core_managers'
p275
(dp276
g6
(dp277
g8
I0
sg9
S'avocado_core_managers.html'
p278
sg11
S'avocado/core/managers'
p279
sg13
g14
(g15
g16
NtRp280
(dp281
g19
I1
sg20
I0
sg21
I17
sg22
I0
sg23
I7
sg24
I0
sbssg25
S'\xc6\xf7\xfc\x92\xfd\xa6\xf1\xfap^6\xc0\x1b\xe5\xf8~'
p282
ssS'avocado_operators'
p283
(dp284
g6
(dp285
g8
I0
sg9
S'avocado_operators.html'
p286
sg11
S'avocado/operators'
p287
sg13
g14
(g15
g16
NtRp288
(dp289
g19
I1
sg20
I0
sg21
I154
sg22
I0
sg23
I37
sg24
I0
sbssg25
S"\x88'\x8cR\xc8\xa9\xf8m\xe1\xc6u\xd7\x99y\xf2\xc6"
p290
ssS'avocado_tests_cases_exporters'
p291
(dp292
g6
(dp293
g8
I0
sg9
S'avocado_tests_cases_exporters.html'
p294
sg11
S'avocado/tests/cases/exporters'
p295
sg13
g14
(g15
g16
NtRp296
(dp297
g19
I1
sg20
I0
sg21
I63
sg22
I0
sg23
I47
sg24
I0
sbssg25
S'z*$\xfc\xe5a\x83Z\xf1i\xe8\xb6Vm\x81\x81'
p298
ssS'avocado_management_commands_orphaned'
p299
(dp300
g6
(dp301
g8
I0
sg9
S'avocado_management_commands_orphaned.html'
p302
sg11
S'avocado/management/commands/orphaned'
p303
sg13
g14
(g15
g16
NtRp304
(dp305
g19
I1
sg20
I0
sg21
I36
sg22
I0
sg23
I36
sg24
I0
sbssg25
S'_w\x1d\x90\xb3-C~XMj\xc8\xa7\x92?\xbc'
p306
ssS'avocado_exporters__r'
p307
(dp308
g6
(dp309
g8
I0
sg9
S'avocado_exporters__r.html'
p310
sg11
S'avocado/exporters/_r'
p311
sg13
g14
(g15
g16
NtRp312
(dp313
g19
I1
sg20
I0
sg21
I66
sg22
I0
sg23
I56
sg24
I0
sbssg25
S'\x08\xfa\xe32{\xbf\xa8l;\xc2\xeeb\x00I\xf5\x00'
p314
ssS'avocado_conf___init__'
p315
(dp316
g6
(dp317
g8
I0
sg9
S'avocado_conf___init__.html'
p318
sg11
S'avocado/conf/__init__'
p319
sg13
g14
(g15
g16
NtRp320
(dp321
g19
I1
sg20
I0
sg21
I15
sg22
I0
sg23
I2
sg24
I0
sbssg25
S'v\xd4\x8c\xbfM$7\x81\xd0uH?\x98\x8f\x94\xaf'
p322
ssS'avocado_tests_models'
p323
(dp324
g6
(dp325
g8
I0
sg9
S'avocado_tests_models.html'
p326
sg11
S'avocado/tests/models'
p327
sg13
g14
(g15
g16
NtRp328
(dp329
g19
I1
sg20
I0
sg21
I23
sg22
I0
sg23
I0
sg24
I0
sbssg25
S'\xe5&\x08\xce\x85\xcd\x10x\x11me+\xef\x84\xebk'
p330
ssS'avocado_exporters__csv'
p331
(dp332
g6
(dp333
g8
I0
sg9
S'avocado_exporters__csv.html'
p334
sg11
S'avocado/exporters/_csv'
p335
sg13
g14
(g15
g16
NtRp336
(dp337
g19
I1
sg20
I0
sg21
I17
sg22
I0
sg23
I12
sg24
I0
sbssg25
S'\xa5\x81b\xe1uD3Y\x1d\xcdX\xfb<\x89:\x14'
p338
ssS'avocado_exporters__json'
p339
(dp340
g6
(dp341
g8
I0
sg9
S'avocado_exporters__json.html'
p342
sg11
S'avocado/exporters/_json'
p343
sg13
g14
(g15
g16
NtRp344
(dp345
g19
I1
sg20
I0
sg21
I14
sg22
I0
sg23
I6
sg24
I0
sbssg25
S'\xdf\xb0\x15\x88UB\xbaH\xd4\xe7IN\xe7\x8f\x1e_'
p346
ssS'avocado_tests_cases_operators'
p347
(dp348
g6
(dp349
g8
I0
sg9
S'avocado_tests_cases_operators.html'
p350
sg11
S'avocado/tests/cases/operators'
p351
sg13
g14
(g15
g16
NtRp352
(dp353
g19
I1
sg20
I0
sg21
I5
sg22
I0
sg23
I0
sg24
I0
sbssg25
S'\xb5\xb6\x14yyw\xc9\xe8\x7f\xda\x12\xe7&\xf3\xe49'
p354
ssS'avocado_core_binning'
p355
(dp356
g6
(dp357
g8
I0
sg9
S'avocado_core_binning.html'
p358
sg11
S'avocado/core/binning'
p359
sg13
g14
(g15
g16
NtRp360
(dp361
g19
I1
sg20
I0
sg21
I84
sg22
I0
sg23
I46
sg24
I0
sbssg25
S'~\xb8\x03\x08\xed\xf4\xd3V\x8c\xdf\\g\x85t!\xeb'
p362
sssS'version'
p363
S'3.5.1'
p364
sS'settings'
p365
S'c\xb9\xeeA\xef\x8b\x16kG\xcf;U."\xb8\x8b'
p366
sS'format'
p367
I1
s.