(dp1
S'files'
p2
(dp3
S'avocado_exporters__excel'
p4
(dp5
S'index'
p6
(dp7
S'par'
p8
I1
sS'html_filename'
p9
S'avocado_exporters__excel.html'
p10
sS'name'
p11
S'avocado/exporters/_excel'
p12
sS'nums'
p13
ccopy_reg
_reconstructor
p14
(ccoverage.results
Numbers
p15
c__builtin__
object
p16
NtRp17
(dp18
S'n_files'
p19
I1
sS'n_branches'
p20
I14
sS'n_statements'
p21
I34
sS'n_excluded'
p22
I0
sS'n_missing'
p23
I3
sS'n_missing_branches'
p24
I1
sbssS'hash'
p25
S'M2\x90\x17\x91\xc9q\xd7\xd6\x16\x88\xb4\xe8$\x86\x12'
p26
ssS'avocado___init__'
p27
(dp28
g6
(dp29
g8
I2
sg9
S'avocado___init__.html'
p30
sg11
S'avocado/__init__'
p31
sg13
g14
(g15
g16
NtRp32
(dp33
g19
I1
sg20
I4
sg21
I10
sg22
I0
sg23
I0
sg24
I2
sbssg25
S'\x87\xc2\xc6\xba\x1e\x02b\x94\xd5\x12e\xda7\xfa\xf4\x99'
p34
ssS'avocado_management_commands_avocado_orphaned'
p35
(dp36
g6
(dp37
g8
I0
sg9
S'avocado_management_commands_avocado_orphaned.html'
p38
sg11
S'avocado/management/commands/avocado_orphaned'
p39
sg13
g14
(g15
g16
NtRp40
(dp41
g19
I1
sg20
I20
sg21
I36
sg22
I0
sg23
I36
sg24
I0
sbssg25
S'_w\x1d\x90\xb3-C~XMj\xc8\xa7\x92?\xbc'
p42
ssS'avocado_management___init__'
p43
(dp44
g6
(dp45
g8
I0
sg9
S'avocado_management___init__.html'
p46
sg11
S'avocado/management/__init__'
p47
sg13
g14
(g15
g16
NtRp48
(dp49
g19
I1
sg20
I0
sg21
I0
sg22
I0
sg23
I0
sg24
I0
sbssg25
S'\xbf/\x83L\xc9/\xc0\x9a\xf0p\xa8h\xff\x10T5'
p50
ssS'avocado_core___init__'
p51
(dp52
g6
(dp53
g8
I0
sg9
S'avocado_core___init__.html'
p54
sg11
S'avocado/core/__init__'
p55
sg13
g14
(g15
g16
NtRp56
(dp57
g19
I1
sg20
I0
sg21
I0
sg22
I0
sg23
I0
sg24
I0
sbssg25
S'\xbf/\x83L\xc9/\xc0\x9a\xf0p\xa8h\xff\x10T5'
p58
ssS'avocado_core_loader'
p59
(dp60
g6
(dp61
g8
I5
sg9
S'avocado_core_loader.html'
p62
sg11
S'avocado/core/loader'
p63
sg13
g14
(g15
g16
NtRp64
(dp65
g19
I1
sg20
I26
sg21
I55
sg22
I0
sg23
I7
sg24
I5
sbssg25
S'\x88\x16\xb4\xca\xc5*hnT\xb9\xfd\r\x0b]x\x9b'
p66
ssS'avocado_models'
p67
(dp68
g6
(dp69
S'par'
p70
I10
sS'html_filename'
p71
S'avocado_models.html'
p72
sS'name'
p73
S'avocado/models'
p74
sS'nums'
p75
g14
(g15
g16
NtRp76
(dp77
g19
I1
sg20
I30
sg21
I141
sg22
I8
sg23
I29
sg24
I10
sbssg25
S'\x9au\x02\xd7J_Dk\xac\x99\x1fph\xca\x15\n'
p78
ssS'avocado_core_mixins'
p79
(dp80
g6
(dp81
g8
I0
sg9
S'avocado_core_mixins.html'
p82
sg11
S'avocado/core/mixins'
p83
sg13
g14
(g15
g16
NtRp84
(dp85
g19
I1
sg20
I6
sg21
I28
sg22
I0
sg23
I28
sg24
I0
sbssg25
S",\xbfk\x9fq\xeb\x0e7\xc2B\x0bN\xd4\xc0\xcd'"
p86
ssS'avocado_managers'
p87
(dp88
g6
(dp89
g70
I0
sg71
S'avocado_managers.html'
p90
sg73
S'avocado/managers'
p91
sg75
g14
(g15
g16
NtRp92
(dp93
g19
I1
sg20
I4
sg21
I29
sg22
I0
sg23
I15
sg24
I0
sbssg25
S'mE\xcca\x84\x11\x93ln\xf4:\x05Y,f\xda'
p94
ssS'avocado_management_commands_avocado_sync'
p95
(dp96
g6
(dp97
g70
I0
sg71
S'avocado_management_commands_avocado_sync.html'
p98
sg73
S'avocado/management/commands/avocado_sync'
p99
sg75
g14
(g15
g16
NtRp100
(dp101
g19
I1
sg20
I34
sg21
I77
sg22
I0
sg23
I77
sg24
I0
sbssg25
S'\xda\xce\x95g\xf7\x15\xa4\xcd?\xb7\xf5]\x92$\xd5h'
p102
ssS'avocado_search_indexes'
p103
(dp104
g6
(dp105
g8
I0
sg9
S'avocado_search_indexes.html'
p106
sg11
S'avocado/search_indexes'
p107
sg13
g14
(g15
g16
NtRp108
(dp109
g19
I1
sg20
I0
sg21
I7
sg22
I0
sg23
I7
sg24
I0
sbssg25
S'P\x99\x07\xb1J\xf0\xcc\xfc\xdb\xa3\xfaHM`oe'
p110
ssS'avocado_exporters__sas'
p111
(dp112
g6
(dp113
g8
I3
sg9
S'avocado_exporters__sas.html'
p114
sg11
S'avocado/exporters/_sas'
p115
sg13
g14
(g15
g16
NtRp116
(dp117
g19
I1
sg20
I18
sg21
I89
sg22
I0
sg23
I16
sg24
I3
sbssg25
S'G\xb2]\x0b}A,V\xcd\xa4?\x8fo\x8b\x1a\xa0'
p118
ssS'avocado_query___init__'
p119
(dp120
g6
(dp121
g8
I0
sg9
S'avocado_query___init__.html'
p122
sg11
S'avocado/query/__init__'
p123
sg13
g14
(g15
g16
NtRp124
(dp125
g19
I1
sg20
I0
sg21
I0
sg22
I0
sg23
I0
sg24
I0
sbssg25
S'\xbf/\x83L\xc9/\xc0\x9a\xf0p\xa8h\xff\x10T5'
p126
ssS'avocado_query_nodes'
p127
(dp128
g6
(dp129
g8
I0
sg9
S'avocado_query_nodes.html'
p130
sg11
S'avocado/query/nodes'
p131
sg13
g14
(g15
g16
NtRp132
(dp133
g19
I1
sg20
I42
sg21
I108
sg22
I0
sg23
I108
sg24
I0
sbssg25
S'\xa1\xdd\xce\xa7X\x94N)h\xec>hZ\x9ad\xf5'
p134
ssS'avocado_exporters__json'
p135
(dp136
g6
(dp137
g8
I1
sg9
S'avocado_exporters__json.html'
p138
sg11
S'avocado/exporters/_json'
p139
sg13
g14
(g15
g16
NtRp140
(dp141
g19
I1
sg20
I4
sg21
I14
sg22
I0
sg23
I1
sg24
I1
sbssg25
S'\xee\xc3\xa8X\xc0\xcb\x93K\xe9\x05\x94R+\xb6r\xe9'
p142
ssS'avocado_management_commands___init__'
p143
(dp144
g6
(dp145
g8
I0
sg9
S'avocado_management_commands___init__.html'
p146
sg11
S'avocado/management/commands/__init__'
p147
sg13
g14
(g15
g16
NtRp148
(dp149
g19
I1
sg20
I0
sg21
I0
sg22
I0
sg23
I0
sg24
I0
sbssg25
S'\xe5P\x11)^\xf4>1D.\x0e\x0b\xa1\xf8[+'
p150
ssS'avocado_exporters___init__'
p151
(dp152
g6
(dp153
g8
I1
sg9
S'avocado_exporters___init__.html'
p154
sg11
S'avocado/exporters/__init__'
p155
sg13
g14
(g15
g16
NtRp156
(dp157
g19
I1
sg20
I2
sg21
I17
sg22
I0
sg23
I2
sg24
I1
sbssg25
S'q\xeb\x05L\x90\xd1\xc8\xf2c\xb3\xb8\xe1\x9b#\xc5\xd9'
p158
ssS'avocado_management_commands_avocado'
p159
(dp160
g6
(dp161
g8
I0
sg9
S'avocado_management_commands_avocado.html'
p162
sg11
S'avocado/management/commands/avocado'
p163
sg13
g14
(g15
g16
NtRp164
(dp165
g19
I1
sg20
I2
sg21
I11
sg22
I0
sg23
I11
sg24
I0
sbssg25
S'"@7q9\x8d\x7f\x05\xf94!\xdd\xb6_\xa0p'
p166
ssS'avocado_exporters__base'
p167
(dp168
g6
(dp169
g8
I1
sg9
S'avocado_exporters__base.html'
p170
sg11
S'avocado/exporters/_base'
p171
sg13
g14
(g15
g16
NtRp172
(dp173
g19
I1
sg20
I16
sg21
I43
sg22
I1
sg23
I8
sg24
I1
sbssg25
S'\xb2A\x08]\r\xa0K\x92#\x16!&IDD\xcd'
p174
ssS'avocado_search_sites'
p175
(dp176
g6
(dp177
g8
I0
sg9
S'avocado_search_sites.html'
p178
sg11
S'avocado/search_sites'
p179
sg13
g14
(g15
g16
NtRp180
(dp181
g19
I1
sg20
I0
sg21
I2
sg22
I0
sg23
I2
sg24
I0
sbssg25
S'\x0fU\x9d\x12\x1c\x9cu^\xabr\x1c_]/\xe8\x82'
p182
ssS'avocado_formatters'
p183
(dp184
g6
(dp185
g8
I8
sg9
S'avocado_formatters.html'
p186
sg11
S'avocado/formatters'
p187
sg13
g14
(g15
g16
NtRp188
(dp189
g19
I1
sg20
I30
sg21
I71
sg22
I2
sg23
I15
sg24
I9
sbssg25
S'c,$\x9b\xc4n\xdc\xfe\x9c\xaf|\xe3\x975Y\x99'
p190
ssS'avocado_conf_global_settings'
p191
(dp192
g6
(dp193
g8
I0
sg9
S'avocado_conf_global_settings.html'
p194
sg11
S'avocado/conf/global_settings'
p195
sg13
g14
(g15
g16
NtRp196
(dp197
g19
I1
sg20
I0
sg21
I4
sg22
I0
sg23
I0
sg24
I0
sbssg25
S'\xf9\xb8\x1a\xf2?\x18\xc8\xa7\x90z\xd0\x1f\x95q0L'
p198
ssS'avocado_core_managers'
p199
(dp200
g6
(dp201
g8
I1
sg9
S'avocado_core_managers.html'
p202
sg11
S'avocado/core/managers'
p203
sg13
g14
(g15
g16
NtRp204
(dp205
g19
I1
sg20
I6
sg21
I17
sg22
I0
sg23
I7
sg24
I1
sbssg25
S'o\xb0\xcb\x83>?\x84\x9f\xfc(\x08&[\xad\x97\xef'
p206
ssS'avocado_exporters__r'
p207
(dp208
g6
(dp209
g8
I2
sg9
S'avocado_exporters__r.html'
p210
sg11
S'avocado/exporters/_r'
p211
sg13
g14
(g15
g16
NtRp212
(dp213
g19
I1
sg20
I16
sg21
I66
sg22
I0
sg23
I17
sg24
I2
sbssg25
S'+\x06\xba\xc8\xb6h\xc5Yq\xcf\xb6gm\x13\xb1\x0e'
p214
ssS'avocado_core_binning'
p215
(dp216
g6
(dp217
g8
I7
sg9
S'avocado_core_binning.html'
p218
sg11
S'avocado/core/binning'
p219
sg13
g14
(g15
g16
NtRp220
(dp221
g19
I1
sg20
I39
sg21
I84
sg22
I0
sg23
I46
sg24
I7
sbssg25
S'j\xceP\xb6\x80\x18\x95\xf72\xd75\xbaz\xcf\xf0\x91'
p222
ssS'avocado_conf___init__'
p223
(dp224
g6
(dp225
g8
I1
sg9
S'avocado_conf___init__.html'
p226
sg11
S'avocado/conf/__init__'
p227
sg13
g14
(g15
g16
NtRp228
(dp229
g19
I1
sg20
I8
sg21
I15
sg22
I0
sg23
I2
sg24
I1
sbssg25
S'\xf1\xa6\xc2\x9a\x12%Im\x84~\x9b\xa3\xa3\x02\xa7\xed'
p230
ssS'avocado_exporters__csv'
p231
(dp232
g6
(dp233
g8
I0
sg9
S'avocado_exporters__csv.html'
p234
sg11
S'avocado/exporters/_csv'
p235
sg13
g14
(g15
g16
NtRp236
(dp237
g19
I1
sg20
I8
sg21
I17
sg22
I0
sg23
I0
sg24
I0
sbssg25
S'\xb4l\xa6n\xc2\x9aD\xf8\\\xef\xf0\x04mn\xb6\xa4'
p238
ssS'avocado_query_translators'
p239
(dp240
g6
(dp241
g8
I8
sg9
S'avocado_query_translators.html'
p242
sg11
S'avocado/query/translators'
p243
sg13
g14
(g15
g16
NtRp244
(dp245
g19
I1
sg20
I29
sg21
I79
sg22
I0
sg23
I25
sg24
I9
sbssg25
S'y\xe6\xd5\xc0\xd9tT\xb2\xb2\xe4\xef\xb1\xdb\xca&R'
p246
ssS'avocado_query_operators'
p247
(dp248
g6
(dp249
g8
I1
sg9
S'avocado_query_operators.html'
p250
sg11
S'avocado/query/operators'
p251
sg13
g14
(g15
g16
NtRp252
(dp253
g19
I1
sg20
I12
sg21
I160
sg22
I8
sg23
I1
sg24
I1
sbssg25
S'\xcf\xc0\xc3!\xc0w\xa3\xb9I\xfaf\x84\xea\xd3\xa1q'
p254
sssS'version'
p255
S'3.5.1'
p256
sS'settings'
p257
S'2r\xb3&%\xe5\xc8\xdb\xd2\xad\x90\xe8cU\xbf\xb5'
p258
sS'format'
p259
I1
s.