(dp1
S'files'
p2
(dp3
S'avocado_exporters__excel'
p4
(dp5
S'index'
p6
(dp7
S'par'
p8
I1
sS'html_filename'
p9
S'avocado_exporters__excel.html'
p10
sS'name'
p11
S'avocado/exporters/_excel'
p12
sS'nums'
p13
ccopy_reg
_reconstructor
p14
(ccoverage.results
Numbers
p15
c__builtin__
object
p16
NtRp17
(dp18
S'n_files'
p19
I1
sS'n_branches'
p20
I14
sS'n_statements'
p21
I34
sS'n_excluded'
p22
I0
sS'n_missing'
p23
I3
sS'n_missing_branches'
p24
I1
sbssS'hash'
p25
S'\xcbc\xcb$7\xdb\xa0\x97|Gc\xb6o,.S'
p26
ssS'avocado___init__'
p27
(dp28
g6
(dp29
g8
I2
sg9
S'avocado___init__.html'
p30
sg11
S'avocado/__init__'
p31
sg13
g14
(g15
g16
NtRp32
(dp33
g19
I1
sg20
I4
sg21
I10
sg22
I0
sg23
I0
sg24
I2
sbssg25
S'\x87\xc2\xc6\xba\x1e\x02b\x94\xd5\x12e\xda7\xfa\xf4\x99'
p34
ssS'avocado_management_subcommands_sync'
p35
(dp36
g6
(dp37
g8
I0
sg9
S'avocado_management_subcommands_sync.html'
p38
sg11
S'avocado/management/subcommands/sync'
p39
sg13
g14
(g15
g16
NtRp40
(dp41
g19
I1
sg20
I34
sg21
I69
sg22
I0
sg23
I69
sg24
I0
sbssg25
S'-;\xe2*~n\x03}\xab#\x95\xeb\xa9:\x8b\x8e'
p42
ssS'avocado_query_parser'
p43
(dp44
g6
(dp45
g8
I0
sg9
S'avocado_query_parser.html'
p46
sg11
S'avocado/query/parser'
p47
sg13
g14
(g15
g16
NtRp48
(dp49
g19
I1
sg20
I26
sg21
I42
sg22
I0
sg23
I0
sg24
I0
sbssg25
S'J?\xf7\xc8\xdd\xb8\xaa\x16Z\x8b\xb3\x9b\x93\xee\xc2{'
p50
ssS'avocado_management___init__'
p51
(dp52
g6
(dp53
g8
I0
sg9
S'avocado_management___init__.html'
p54
sg11
S'avocado/management/__init__'
p55
sg13
g14
(g15
g16
NtRp56
(dp57
g19
I1
sg20
I0
sg21
I0
sg22
I0
sg23
I0
sg24
I0
sbssg25
S'\xbf/\x83L\xc9/\xc0\x9a\xf0p\xa8h\xff\x10T5'
p58
ssS'avocado_management_commands_avocado'
p59
(dp60
g6
(dp61
g8
I0
sg9
S'avocado_management_commands_avocado.html'
p62
sg11
S'avocado/management/commands/avocado'
p63
sg13
g14
(g15
g16
NtRp64
(dp65
g19
I1
sg20
I12
sg21
I49
sg22
I0
sg23
I49
sg24
I0
sbssg25
S'S\xd5et\x08\xff\xc0\xb5\xa2Dv\\\xa8\xce\x17?'
p66
ssS'avocado_core_loader'
p67
(dp68
g6
(dp69
g8
I5
sg9
S'avocado_core_loader.html'
p70
sg11
S'avocado/core/loader'
p71
sg13
g14
(g15
g16
NtRp72
(dp73
g19
I1
sg20
I26
sg21
I55
sg22
I0
sg23
I7
sg24
I5
sbssg25
S'\x88\x16\xb4\xca\xc5*hnT\xb9\xfd\r\x0b]x\x9b'
p74
ssS'avocado_models'
p75
(dp76
g6
(dp77
g8
I3
sg9
S'avocado_models.html'
p78
sg11
S'avocado/models'
p79
sg13
g14
(g15
g16
NtRp80
(dp81
g19
I1
sg20
I16
sg21
I135
sg22
I6
sg23
I18
sg24
I3
sbssg25
S'\x01\xef\x07m\xaa\x8f\xc4\x8c\x14\xf0c\xb3\x9c\xf1\xaf"'
p82
ssS'avocado_query_operators'
p83
(dp84
g6
(dp85
g8
I0
sg9
S'avocado_query_operators.html'
p86
sg11
S'avocado/query/operators'
p87
sg13
g14
(g15
g16
NtRp88
(dp89
g19
I1
sg20
I12
sg21
I160
sg22
I8
sg23
I0
sg24
I0
sbssg25
S'\x19\xcb\xff\xa2\xa7>\x13\xc2\x96\xdfY\xb9\xfer\x1eR'
p90
ssS'avocado_core_mixins'
p91
(dp92
g6
(dp93
g8
I0
sg9
S'avocado_core_mixins.html'
p94
sg11
S'avocado/core/mixins'
p95
sg13
g14
(g15
g16
NtRp96
(dp97
g19
I1
sg20
I6
sg21
I28
sg22
I0
sg23
I28
sg24
I0
sbssg25
S",\xbfk\x9fq\xeb\x0e7\xc2B\x0bN\xd4\xc0\xcd'"
p98
ssS'avocado_management_subcommands___init__'
p99
(dp100
g6
(dp101
g8
I0
sg9
S'avocado_management_subcommands___init__.html'
p102
sg11
S'avocado/management/subcommands/__init__'
p103
sg13
g14
(g15
g16
NtRp104
(dp105
g19
I1
sg20
I0
sg21
I0
sg22
I0
sg23
I0
sg24
I0
sbssg25
S'\xe5P\x11)^\xf4>1D.\x0e\x0b\xa1\xf8[+'
p106
ssS'avocado_managers'
p107
(dp108
g6
(dp109
g8
I1
sg9
S'avocado_managers.html'
p110
sg11
S'avocado/managers'
p111
sg13
g14
(g15
g16
NtRp112
(dp113
g19
I1
sg20
I6
sg21
I39
sg22
I0
sg23
I9
sg24
I1
sbssg25
S'N}3D\xbfT\xbe>\x10F\x98\x91\x08Y\x87\xb1'
p114
ssS'avocado_search_indexes'
p115
(dp116
g6
(dp117
g8
I0
sg9
S'avocado_search_indexes.html'
p118
sg11
S'avocado/search_indexes'
p119
sg13
g14
(g15
g16
NtRp120
(dp121
g19
I1
sg20
I0
sg21
I8
sg22
I0
sg23
I0
sg24
I0
sbssg25
S'\t9\xfe\xb0\x82?e\x95\xbd\xb4\xbf\xc0\xacy\x99j'
p122
ssS'avocado_core_cache'
p123
(dp124
g6
(dp125
g8
I2
sg9
S'avocado_core_cache.html'
p126
sg11
S'avocado/core/cache'
p127
sg13
g14
(g15
g16
NtRp128
(dp129
g19
I1
sg20
I16
sg21
I52
sg22
I0
sg23
I3
sg24
I2
sbssg25
S'\xfa\x05\xe2\xad|\xc0ib\x85\x15_\xd6E\x8a\xd8^'
p130
ssS'avocado_forms'
p131
(dp132
g6
(dp133
g8
I0
sg9
S'avocado_forms.html'
p134
sg11
S'avocado/forms'
p135
sg13
g14
(g15
g16
NtRp136
(dp137
g19
I1
sg20
I6
sg21
I25
sg22
I0
sg23
I25
sg24
I0
sbssg25
S'34\x9bo*\xd6\x81\x19\x1f\x96\x1f\x95\x92\xc4\xdc\xb2'
p138
ssS'avocado_state_models'
p139
(dp140
g6
(dp141
g8
I0
sg9
S'avocado_state_models.html'
p142
sg11
S'avocado/state/models'
p143
sg13
g14
(g15
g16
NtRp144
(dp145
g19
I1
sg20
I0
sg21
I23
sg22
I0
sg23
I0
sg24
I0
sbssg25
S'WH\xa7\xb7\x84\x05\x95K\x13\xef\xc2l\xb4\x7f)\xde'
p146
ssS'avocado_exporters__sas'
p147
(dp148
g6
(dp149
g8
I3
sg9
S'avocado_exporters__sas.html'
p150
sg11
S'avocado/exporters/_sas'
p151
sg13
g14
(g15
g16
NtRp152
(dp153
g19
I1
sg20
I18
sg21
I90
sg22
I0
sg23
I17
sg24
I3
sbssg25
S'v\xe0\x10\x14d\xfaLfr\xe5<\xdd\xa9\xa5a\xe7'
p154
ssS'avocado_admin'
p155
(dp156
g6
(dp157
g8
I0
sg9
S'avocado_admin.html'
p158
sg11
S'avocado/admin'
p159
sg13
g14
(g15
g16
NtRp160
(dp161
g19
I1
sg20
I12
sg21
I69
sg22
I0
sg23
I69
sg24
I0
sbssg25
S'N\x08\xf8\x96w\xb2\x08\xc7\xa6\xbb\xf0\xb4\xbf\xa1\x94\xb5'
p162
ssS'avocado_coded_handlers'
p163
(dp164
g6
(dp165
g8
I0
sg9
S'avocado_coded_handlers.html'
p166
sg11
S'avocado/coded/handlers'
p167
sg13
g14
(g15
g16
NtRp168
(dp169
g19
I1
sg20
I0
sg21
I0
sg22
I0
sg23
I0
sg24
I0
sbssg25
S'\xe5P\x11)^\xf4>1D.\x0e\x0b\xa1\xf8[+'
p170
ssS'avocado_query___init__'
p171
(dp172
g6
(dp173
g8
I0
sg9
S'avocado_query___init__.html'
p174
sg11
S'avocado/query/__init__'
p175
sg13
g14
(g15
g16
NtRp176
(dp177
g19
I1
sg20
I0
sg21
I0
sg22
I0
sg23
I0
sg24
I0
sbssg25
S'\xbf/\x83L\xc9/\xc0\x9a\xf0p\xa8h\xff\x10T5'
p178
ssS'avocado_core_models'
p179
(dp180
g6
(dp181
g8
I1
sg9
S'avocado_core_models.html'
p182
sg11
S'avocado/core/models'
p183
sg13
g14
(g15
g16
NtRp184
(dp185
g19
I1
sg20
I6
sg21
I33
sg22
I2
sg23
I10
sg24
I1
sbssg25
S'\x19\xc1\x81\xe84B\xcc\xd2K\xcf[\x1e}\xf3\xd7>'
p186
ssS'avocado_query_translators'
p187
(dp188
g6
(dp189
g8
I10
sg9
S'avocado_query_translators.html'
p190
sg11
S'avocado/query/translators'
p191
sg13
g14
(g15
g16
NtRp192
(dp193
g19
I1
sg20
I38
sg21
I89
sg22
I0
sg23
I29
sg24
I10
sbssg25
S'r?Z\xcd\xb0\x8c\x8f\xde\xf7\n\x00Yl\xd0\x1a\xd7'
p194
ssS'avocado_query_nodes'
p195
(dp196
g6
(dp197
g8
I0
sg9
S'avocado_query_nodes.html'
p198
sg11
S'avocado/query/nodes'
p199
sg13
g14
(g15
g16
NtRp200
(dp201
g19
I1
sg20
I60
sg21
I126
sg22
I0
sg23
I126
sg24
I0
sbssg25
S'\x8e\xda.\x1d>\xd1\xbcU\xe9>\xe7\xdcX\xa4d\xea'
p202
ssS'avocado_management_commands___init__'
p203
(dp204
g6
(dp205
g8
I0
sg9
S'avocado_management_commands___init__.html'
p206
sg11
S'avocado/management/commands/__init__'
p207
sg13
g14
(g15
g16
NtRp208
(dp209
g19
I1
sg20
I0
sg21
I0
sg22
I0
sg23
I0
sg24
I0
sbssg25
S'\xe5P\x11)^\xf4>1D.\x0e\x0b\xa1\xf8[+'
p210
ssS'avocado_stats'
p211
(dp212
g6
(dp213
g8
I8
sg9
S'avocado_stats.html'
p214
sg11
S'avocado/stats'
p215
sg13
g14
(g15
g16
NtRp216
(dp217
g19
I1
sg20
I46
sg21
I135
sg22
I8
sg23
I57
sg24
I8
sbssg25
S'3\x87\xbe\xa9W06\xbd\xdf#\x0e\xfbqi&\xd4'
p218
ssS'avocado_core_utils'
p219
(dp220
g6
(dp221
g8
I3
sg9
S'avocado_core_utils.html'
p222
sg11
S'avocado/core/utils'
p223
sg13
g14
(g15
g16
NtRp224
(dp225
g19
I1
sg20
I6
sg21
I15
sg22
I0
sg23
I3
sg24
I3
sbssg25
S'\x18\x8a\xd6\xa7\x0e\xbc\xde\x8aI\xedo\xbc\x0c\xc7\xfbg'
p226
ssS'avocado_exporters___init__'
p227
(dp228
g6
(dp229
g8
I1
sg9
S'avocado_exporters___init__.html'
p230
sg11
S'avocado/exporters/__init__'
p231
sg13
g14
(g15
g16
NtRp232
(dp233
g19
I1
sg20
I2
sg21
I17
sg22
I0
sg23
I2
sg24
I1
sbssg25
S'q\xeb\x05L\x90\xd1\xc8\xf2c\xb3\xb8\xe1\x9b#\xc5\xd9'
p234
ssS'avocado_coded_models'
p235
(dp236
g6
(dp237
g8
I0
sg9
S'avocado_coded_models.html'
p238
sg11
S'avocado/coded/models'
p239
sg13
g14
(g15
g16
NtRp240
(dp241
g19
I1
sg20
I0
sg21
I14
sg22
I0
sg23
I1
sg24
I0
sbssg25
S'A-\xdcqo\xcc(\xffr%\xa0\xc8\xdb\x17\x95m'
p242
ssS'avocado_core___init__'
p243
(dp244
g6
(dp245
g8
I0
sg9
S'avocado_core___init__.html'
p246
sg11
S'avocado/core/__init__'
p247
sg13
g14
(g15
g16
NtRp248
(dp249
g19
I1
sg20
I0
sg21
I0
sg22
I0
sg23
I0
sg24
I0
sbssg25
S'\xbf/\x83L\xc9/\xc0\x9a\xf0p\xa8h\xff\x10T5'
p250
ssS'avocado_exporters__base'
p251
(dp252
g6
(dp253
g8
I1
sg9
S'avocado_exporters__base.html'
p254
sg11
S'avocado/exporters/_base'
p255
sg13
g14
(g15
g16
NtRp256
(dp257
g19
I1
sg20
I16
sg21
I43
sg22
I1
sg23
I8
sg24
I1
sbssg25
S'5\xf2|\x05\xd8\xae\xb9o\xee\n\x1f\x15\x87\xc4\xc2\xb9'
p258
ssS'avocado_search_sites'
p259
(dp260
g6
(dp261
g8
I0
sg9
S'avocado_search_sites.html'
p262
sg11
S'avocado/search_sites'
p263
sg13
g14
(g15
g16
NtRp264
(dp265
g19
I1
sg20
I0
sg21
I2
sg22
I0
sg23
I0
sg24
I0
sbssg25
S'\x8a\x8e\x1e\xe0B\xd7i\xc0y\x08\xfa/\xaf\xf3V\xcf'
p266
ssS'avocado_formatters'
p267
(dp268
g6
(dp269
g8
I8
sg9
S'avocado_formatters.html'
p270
sg11
S'avocado/formatters'
p271
sg13
g14
(g15
g16
NtRp272
(dp273
g19
I1
sg20
I32
sg21
I74
sg22
I2
sg23
I14
sg24
I8
sbssg25
S'P\xf3\r\xb0(\xf8\xba\x8a\xb65\xb2K\xe1X\xf6\xdb'
p274
ssS'avocado_conf_global_settings'
p275
(dp276
g6
(dp277
g8
I0
sg9
S'avocado_conf_global_settings.html'
p278
sg11
S'avocado/conf/global_settings'
p279
sg13
g14
(g15
g16
NtRp280
(dp281
g19
I1
sg20
I0
sg21
I5
sg22
I0
sg23
I0
sg24
I0
sbssg25
S'5\x9e,G\xb6\xc2\xdaN\xc22&\xbcQ(\x0b\x99'
p282
ssS'avocado_state___init__'
p283
(dp284
g6
(dp285
g8
I0
sg9
S'avocado_state___init__.html'
p286
sg11
S'avocado/state/__init__'
p287
sg13
g14
(g15
g16
NtRp288
(dp289
g19
I1
sg20
I0
sg21
I0
sg22
I0
sg23
I0
sg24
I0
sbssg25
S'\xbf/\x83L\xc9/\xc0\x9a\xf0p\xa8h\xff\x10T5'
p290
ssS'avocado_core_managers'
p291
(dp292
g6
(dp293
g8
I1
sg9
S'avocado_core_managers.html'
p294
sg11
S'avocado/core/managers'
p295
sg13
g14
(g15
g16
NtRp296
(dp297
g19
I1
sg20
I6
sg21
I17
sg22
I0
sg23
I7
sg24
I1
sbssg25
S'\xc7Y-s9\xfa\xc0\xc0\x96\xf4\xc6Oi\x8b\xfe\x99'
p298
ssS'avocado_coded___init__'
p299
(dp300
g6
(dp301
g8
I0
sg9
S'avocado_coded___init__.html'
p302
sg11
S'avocado/coded/__init__'
p303
sg13
g14
(g15
g16
NtRp304
(dp305
g19
I1
sg20
I0
sg21
I0
sg22
I0
sg23
I0
sg24
I0
sbssg25
S'\xbf/\x83L\xc9/\xc0\x9a\xf0p\xa8h\xff\x10T5'
p306
ssS'avocado_exporters__r'
p307
(dp308
g6
(dp309
g8
I2
sg9
S'avocado_exporters__r.html'
p310
sg11
S'avocado/exporters/_r'
p311
sg13
g14
(g15
g16
NtRp312
(dp313
g19
I1
sg20
I16
sg21
I66
sg22
I0
sg23
I17
sg24
I2
sbssg25
S'\x1c<\x0f5\x03\xd0ptgV\x992\xda\x82\xc7\x19'
p314
ssS'avocado_management_subcommands_orphaned'
p315
(dp316
g6
(dp317
g8
I0
sg9
S'avocado_management_subcommands_orphaned.html'
p318
sg11
S'avocado/management/subcommands/orphaned'
p319
sg13
g14
(g15
g16
NtRp320
(dp321
g19
I1
sg20
I20
sg21
I35
sg22
I0
sg23
I35
sg24
I0
sbssg25
S'D\x0eBgrNs\xa6\x10ux\x81\xc5\x87\x96\xd2'
p322
ssS'avocado_conf___init__'
p323
(dp324
g6
(dp325
g8
I1
sg9
S'avocado_conf___init__.html'
p326
sg11
S'avocado/conf/__init__'
p327
sg13
g14
(g15
g16
NtRp328
(dp329
g19
I1
sg20
I8
sg21
I15
sg22
I0
sg23
I2
sg24
I1
sbssg25
S'\xbf\xf0b0tR\x03\xb6\xb5\x9a=e\x82\xff\x0c\x17'
p330
ssS'avocado_exporters__csv'
p331
(dp332
g6
(dp333
g8
I0
sg9
S'avocado_exporters__csv.html'
p334
sg11
S'avocado/exporters/_csv'
p335
sg13
g14
(g15
g16
NtRp336
(dp337
g19
I1
sg20
I8
sg21
I17
sg22
I0
sg23
I0
sg24
I0
sbssg25
S'\xb4l\xa6n\xc2\x9aD\xf8\\\xef\xf0\x04mn\xb6\xa4'
p338
ssS'avocado_exporters__json'
p339
(dp340
g6
(dp341
g8
I1
sg9
S'avocado_exporters__json.html'
p342
sg11
S'avocado/exporters/_json'
p343
sg13
g14
(g15
g16
NtRp344
(dp345
g19
I1
sg20
I4
sg21
I14
sg22
I0
sg23
I1
sg24
I1
sbssg25
S'\xee\xc3\xa8X\xc0\xcb\x93K\xe9\x05\x94R+\xb6r\xe9'
p346
ssS'avocado_core_binning'
p347
(dp348
g6
(dp349
g8
I7
sg9
S'avocado_core_binning.html'
p350
sg11
S'avocado/core/binning'
p351
sg13
g14
(g15
g16
NtRp352
(dp353
g19
I1
sg20
I39
sg21
I84
sg22
I0
sg23
I46
sg24
I7
sbssg25
S'\xd0\x82\xc7\xd2\x17GG\xacx\xbc\xb7G\xd1\x83\xb7\x10'
p354
sssS'version'
p355
S'3.5.1'
p356
sS'settings'
p357
S'2r\xb3&%\xe5\xc8\xdb\xd2\xad\x90\xe8cU\xbf\xb5'
p358
sS'format'
p359
I1
s.