(dp1
S'files'
p2
(dp3
S'avocado_exporters__excel'
p4
(dp5
S'index'
p6
(dp7
S'par'
p8
I1
sS'html_filename'
p9
S'avocado_exporters__excel.html'
p10
sS'name'
p11
S'avocado/exporters/_excel'
p12
sS'nums'
p13
ccopy_reg
_reconstructor
p14
(ccoverage.results
Numbers
p15
c__builtin__
object
p16
NtRp17
(dp18
S'n_files'
p19
I1
sS'n_branches'
p20
I14
sS'n_statements'
p21
I34
sS'n_excluded'
p22
I0
sS'n_missing'
p23
I3
sS'n_missing_branches'
p24
I1
sbssS'hash'
p25
S'M2\x90\x17\x91\xc9q\xd7\xd6\x16\x88\xb4\xe8$\x86\x12'
p26
ssS'avocado___init__'
p27
(dp28
g6
(dp29
g8
I2
sg9
S'avocado___init__.html'
p30
sg11
S'avocado/__init__'
p31
sg13
g14
(g15
g16
NtRp32
(dp33
g19
I1
sg20
I4
sg21
I10
sg22
I0
sg23
I0
sg24
I2
sbssg25
S'\x87\xc2\xc6\xba\x1e\x02b\x94\xd5\x12e\xda7\xfa\xf4\x99'
p34
ssS'avocado_management_subcommands_sync'
p35
(dp36
g6
(dp37
g8
I0
sg9
S'avocado_management_subcommands_sync.html'
p38
sg11
S'avocado/management/subcommands/sync'
p39
sg13
g14
(g15
g16
NtRp40
(dp41
g19
I1
sg20
I32
sg21
I65
sg22
I0
sg23
I65
sg24
I0
sbssg25
S'\xc6\xdeh\r\x9b\xadX\xd2\xb8\x00\xde\xa7\x04\x8e\xdcY'
p42
ssS'avocado_management___init__'
p43
(dp44
g6
(dp45
g8
I0
sg9
S'avocado_management___init__.html'
p46
sg11
S'avocado/management/__init__'
p47
sg13
g14
(g15
g16
NtRp48
(dp49
g19
I1
sg20
I0
sg21
I0
sg22
I0
sg23
I0
sg24
I0
sbssg25
S'\xbf/\x83L\xc9/\xc0\x9a\xf0p\xa8h\xff\x10T5'
p50
ssS'avocado_management_commands_avocado'
p51
(dp52
g6
(dp53
g8
I0
sg9
S'avocado_management_commands_avocado.html'
p54
sg11
S'avocado/management/commands/avocado'
p55
sg13
g14
(g15
g16
NtRp56
(dp57
g19
I1
sg20
I12
sg21
I49
sg22
I0
sg23
I49
sg24
I0
sbssg25
S'S\xd5et\x08\xff\xc0\xb5\xa2Dv\\\xa8\xce\x17?'
p58
ssS'avocado_core_loader'
p59
(dp60
g6
(dp61
g8
I5
sg9
S'avocado_core_loader.html'
p62
sg11
S'avocado/core/loader'
p63
sg13
g14
(g15
g16
NtRp64
(dp65
g19
I1
sg20
I26
sg21
I55
sg22
I0
sg23
I7
sg24
I5
sbssg25
S'\x88\x16\xb4\xca\xc5*hnT\xb9\xfd\r\x0b]x\x9b'
p66
ssS'avocado_models'
p67
(dp68
g6
(dp69
g8
I7
sg9
S'avocado_models.html'
p70
sg11
S'avocado/models'
p71
sg13
g14
(g15
g16
NtRp72
(dp73
g19
I1
sg20
I34
sg21
I151
sg22
I8
sg23
I33
sg24
I7
sbssg25
S'\x7f\tv\x95Ap<(Y\x05}?\x80;/c'
p74
ssS'avocado_query_operators'
p75
(dp76
g6
(dp77
g8
I1
sg9
S'avocado_query_operators.html'
p78
sg11
S'avocado/query/operators'
p79
sg13
g14
(g15
g16
NtRp80
(dp81
g19
I1
sg20
I12
sg21
I160
sg22
I8
sg23
I1
sg24
I1
sbssg25
S'\xcf\xc0\xc3!\xc0w\xa3\xb9I\xfaf\x84\xea\xd3\xa1q'
p82
ssS'avocado_core_mixins'
p83
(dp84
g6
(dp85
g8
I0
sg9
S'avocado_core_mixins.html'
p86
sg11
S'avocado/core/mixins'
p87
sg13
g14
(g15
g16
NtRp88
(dp89
g19
I1
sg20
I6
sg21
I28
sg22
I0
sg23
I28
sg24
I0
sbssg25
S",\xbfk\x9fq\xeb\x0e7\xc2B\x0bN\xd4\xc0\xcd'"
p90
ssS'avocado_management_subcommands___init__'
p91
(dp92
g6
(dp93
g8
I0
sg9
S'avocado_management_subcommands___init__.html'
p94
sg11
S'avocado/management/subcommands/__init__'
p95
sg13
g14
(g15
g16
NtRp96
(dp97
g19
I1
sg20
I0
sg21
I0
sg22
I0
sg23
I0
sg24
I0
sbssg25
S'\xe5P\x11)^\xf4>1D.\x0e\x0b\xa1\xf8[+'
p98
ssS'avocado_managers'
p99
(dp100
g6
(dp101
g8
I1
sg9
S'avocado_managers.html'
p102
sg11
S'avocado/managers'
p103
sg13
g14
(g15
g16
NtRp104
(dp105
g19
I1
sg20
I6
sg21
I35
sg22
I0
sg23
I11
sg24
I1
sbssg25
S'\xbf\xf6j\xbc\xf2\xb4Q\xa0\x8c\x8c\x9a+\xaes\xb6\xdf'
p106
ssS'avocado_search_indexes'
p107
(dp108
g6
(dp109
g8
I0
sg9
S'avocado_search_indexes.html'
p110
sg11
S'avocado/search_indexes'
p111
sg13
g14
(g15
g16
NtRp112
(dp113
g19
I1
sg20
I0
sg21
I8
sg22
I0
sg23
I0
sg24
I0
sbssg25
S'\n\xe0\xc4\x9c\x0f(|}\xc9\x00o\xc4\xc3\xa2\x1b\xf4'
p114
ssS'avocado_core_cache'
p115
(dp116
g6
(dp117
g8
I3
sg9
S'avocado_core_cache.html'
p118
sg11
S'avocado/core/cache'
p119
sg13
g14
(g15
g16
NtRp120
(dp121
g19
I1
sg20
I14
sg21
I47
sg22
I0
sg23
I5
sg24
I3
sbssg25
S'\x03\x866\x13\xbe\xc6\xf6\xa3 \x00\xa0Dh\xfc\xb0\xb3'
p122
ssS'avocado_exporters__sas'
p123
(dp124
g6
(dp125
g8
I3
sg9
S'avocado_exporters__sas.html'
p126
sg11
S'avocado/exporters/_sas'
p127
sg13
g14
(g15
g16
NtRp128
(dp129
g19
I1
sg20
I18
sg21
I89
sg22
I0
sg23
I16
sg24
I3
sbssg25
S'G\xb2]\x0b}A,V\xcd\xa4?\x8fo\x8b\x1a\xa0'
p130
ssS'avocado_coded_handlers'
p131
(dp132
g6
(dp133
g8
I0
sg9
S'avocado_coded_handlers.html'
p134
sg11
S'avocado/coded/handlers'
p135
sg13
g14
(g15
g16
NtRp136
(dp137
g19
I1
sg20
I0
sg21
I0
sg22
I0
sg23
I0
sg24
I0
sbssg25
S'\xe5P\x11)^\xf4>1D.\x0e\x0b\xa1\xf8[+'
p138
ssS'avocado_query___init__'
p139
(dp140
g6
(dp141
g8
I0
sg9
S'avocado_query___init__.html'
p142
sg11
S'avocado/query/__init__'
p143
sg13
g14
(g15
g16
NtRp144
(dp145
g19
I1
sg20
I0
sg21
I0
sg22
I0
sg23
I0
sg24
I0
sbssg25
S'\xbf/\x83L\xc9/\xc0\x9a\xf0p\xa8h\xff\x10T5'
p146
ssS'avocado_query_translators'
p147
(dp148
g6
(dp149
g8
I8
sg9
S'avocado_query_translators.html'
p150
sg11
S'avocado/query/translators'
p151
sg13
g14
(g15
g16
NtRp152
(dp153
g19
I1
sg20
I29
sg21
I79
sg22
I0
sg23
I25
sg24
I9
sbssg25
S'y\xe6\xd5\xc0\xd9tT\xb2\xb2\xe4\xef\xb1\xdb\xca&R'
p154
ssS'avocado_query_nodes'
p155
(dp156
g6
(dp157
g8
I0
sg9
S'avocado_query_nodes.html'
p158
sg11
S'avocado/query/nodes'
p159
sg13
g14
(g15
g16
NtRp160
(dp161
g19
I1
sg20
I42
sg21
I108
sg22
I0
sg23
I108
sg24
I0
sbssg25
S'\xa1\xdd\xce\xa7X\x94N)h\xec>hZ\x9ad\xf5'
p162
ssS'avocado_management_commands___init__'
p163
(dp164
g6
(dp165
g8
I0
sg9
S'avocado_management_commands___init__.html'
p166
sg11
S'avocado/management/commands/__init__'
p167
sg13
g14
(g15
g16
NtRp168
(dp169
g19
I1
sg20
I0
sg21
I0
sg22
I0
sg23
I0
sg24
I0
sbssg25
S'\xe5P\x11)^\xf4>1D.\x0e\x0b\xa1\xf8[+'
p170
ssS'avocado_core_utils'
p171
(dp172
g6
(dp173
g8
I2
sg9
S'avocado_core_utils.html'
p174
sg11
S'avocado/core/utils'
p175
sg13
g14
(g15
g16
NtRp176
(dp177
g19
I1
sg20
I4
sg21
I10
sg22
I0
sg23
I3
sg24
I2
sbssg25
S'\xa87\xdexR{\xe4\xe7\xc9\xa30\xce\xc8\x1a\xb0\xf9'
p178
ssS'avocado_exporters___init__'
p179
(dp180
g6
(dp181
g8
I1
sg9
S'avocado_exporters___init__.html'
p182
sg11
S'avocado/exporters/__init__'
p183
sg13
g14
(g15
g16
NtRp184
(dp185
g19
I1
sg20
I2
sg21
I17
sg22
I0
sg23
I2
sg24
I1
sbssg25
S'q\xeb\x05L\x90\xd1\xc8\xf2c\xb3\xb8\xe1\x9b#\xc5\xd9'
p186
ssS'avocado_coded_models'
p187
(dp188
g6
(dp189
g8
I0
sg9
S'avocado_coded_models.html'
p190
sg11
S'avocado/coded/models'
p191
sg13
g14
(g15
g16
NtRp192
(dp193
g19
I1
sg20
I0
sg21
I14
sg22
I0
sg23
I1
sg24
I0
sbssg25
S'\x02l\x90dj\x9a\xc1.\xa8\xe9/\xd8\x01\xab\x18\xf2'
p194
ssS'avocado_core___init__'
p195
(dp196
g6
(dp197
g8
I0
sg9
S'avocado_core___init__.html'
p198
sg11
S'avocado/core/__init__'
p199
sg13
g14
(g15
g16
NtRp200
(dp201
g19
I1
sg20
I0
sg21
I0
sg22
I0
sg23
I0
sg24
I0
sbssg25
S'\xbf/\x83L\xc9/\xc0\x9a\xf0p\xa8h\xff\x10T5'
p202
ssS'avocado_exporters__base'
p203
(dp204
g6
(dp205
g8
I1
sg9
S'avocado_exporters__base.html'
p206
sg11
S'avocado/exporters/_base'
p207
sg13
g14
(g15
g16
NtRp208
(dp209
g19
I1
sg20
I16
sg21
I43
sg22
I1
sg23
I8
sg24
I1
sbssg25
S'\xf6Li\xda\xddn\x0b\x94\xf6Im\x81\xd6\x91\x08r'
p210
ssS'avocado_search_sites'
p211
(dp212
g6
(dp213
g8
I0
sg9
S'avocado_search_sites.html'
p214
sg11
S'avocado/search_sites'
p215
sg13
g14
(g15
g16
NtRp216
(dp217
g19
I1
sg20
I0
sg21
I2
sg22
I0
sg23
I0
sg24
I0
sbssg25
S'\xf9\x99\xa93\x00\xc9\x9bt\xa3\xfb\xce-\x1d-J|'
p218
ssS'avocado_formatters'
p219
(dp220
g6
(dp221
g8
I8
sg9
S'avocado_formatters.html'
p222
sg11
S'avocado/formatters'
p223
sg13
g14
(g15
g16
NtRp224
(dp225
g19
I1
sg20
I32
sg21
I74
sg22
I2
sg23
I15
sg24
I9
sbssg25
S'l\x1fe\xdf\x03\xc0\xef\xc7\x86\xa6g\xca\x8bK\xea\xb2'
p226
ssS'avocado_conf_global_settings'
p227
(dp228
g6
(dp229
g8
I0
sg9
S'avocado_conf_global_settings.html'
p230
sg11
S'avocado/conf/global_settings'
p231
sg13
g14
(g15
g16
NtRp232
(dp233
g19
I1
sg20
I0
sg21
I4
sg22
I0
sg23
I0
sg24
I0
sbssg25
S'\xf9\xb8\x1a\xf2?\x18\xc8\xa7\x90z\xd0\x1f\x95q0L'
p234
ssS'avocado_core_managers'
p235
(dp236
g6
(dp237
g8
I1
sg9
S'avocado_core_managers.html'
p238
sg11
S'avocado/core/managers'
p239
sg13
g14
(g15
g16
NtRp240
(dp241
g19
I1
sg20
I6
sg21
I17
sg22
I0
sg23
I7
sg24
I1
sbssg25
S'o\xb0\xcb\x83>?\x84\x9f\xfc(\x08&[\xad\x97\xef'
p242
ssS'avocado_coded___init__'
p243
(dp244
g6
(dp245
g8
I0
sg9
S'avocado_coded___init__.html'
p246
sg11
S'avocado/coded/__init__'
p247
sg13
g14
(g15
g16
NtRp248
(dp249
g19
I1
sg20
I0
sg21
I0
sg22
I0
sg23
I0
sg24
I0
sbssg25
S'\xbf/\x83L\xc9/\xc0\x9a\xf0p\xa8h\xff\x10T5'
p250
ssS'avocado_exporters__r'
p251
(dp252
g6
(dp253
g8
I2
sg9
S'avocado_exporters__r.html'
p254
sg11
S'avocado/exporters/_r'
p255
sg13
g14
(g15
g16
NtRp256
(dp257
g19
I1
sg20
I16
sg21
I66
sg22
I0
sg23
I17
sg24
I2
sbssg25
S'+\x06\xba\xc8\xb6h\xc5Yq\xcf\xb6gm\x13\xb1\x0e'
p258
ssS'avocado_management_subcommands_orphaned'
p259
(dp260
g6
(dp261
g8
I0
sg9
S'avocado_management_subcommands_orphaned.html'
p262
sg11
S'avocado/management/subcommands/orphaned'
p263
sg13
g14
(g15
g16
NtRp264
(dp265
g19
I1
sg20
I20
sg21
I36
sg22
I0
sg23
I36
sg24
I0
sbssg25
S'_w\x1d\x90\xb3-C~XMj\xc8\xa7\x92?\xbc'
p266
ssS'avocado_conf___init__'
p267
(dp268
g6
(dp269
g8
I1
sg9
S'avocado_conf___init__.html'
p270
sg11
S'avocado/conf/__init__'
p271
sg13
g14
(g15
g16
NtRp272
(dp273
g19
I1
sg20
I8
sg21
I15
sg22
I0
sg23
I2
sg24
I1
sbssg25
S'\xf1\xa6\xc2\x9a\x12%Im\x84~\x9b\xa3\xa3\x02\xa7\xed'
p274
ssS'avocado_exporters__csv'
p275
(dp276
g6
(dp277
g8
I0
sg9
S'avocado_exporters__csv.html'
p278
sg11
S'avocado/exporters/_csv'
p279
sg13
g14
(g15
g16
NtRp280
(dp281
g19
I1
sg20
I8
sg21
I17
sg22
I0
sg23
I0
sg24
I0
sbssg25
S'\xb4l\xa6n\xc2\x9aD\xf8\\\xef\xf0\x04mn\xb6\xa4'
p282
ssS'avocado_exporters__json'
p283
(dp284
g6
(dp285
g8
I1
sg9
S'avocado_exporters__json.html'
p286
sg11
S'avocado/exporters/_json'
p287
sg13
g14
(g15
g16
NtRp288
(dp289
g19
I1
sg20
I4
sg21
I14
sg22
I0
sg23
I1
sg24
I1
sbssg25
S'\xee\xc3\xa8X\xc0\xcb\x93K\xe9\x05\x94R+\xb6r\xe9'
p290
ssS'avocado_core_binning'
p291
(dp292
g6
(dp293
g8
I7
sg9
S'avocado_core_binning.html'
p294
sg11
S'avocado/core/binning'
p295
sg13
g14
(g15
g16
NtRp296
(dp297
g19
I1
sg20
I39
sg21
I84
sg22
I0
sg23
I46
sg24
I7
sbssg25
S'j\xceP\xb6\x80\x18\x95\xf72\xd75\xbaz\xcf\xf0\x91'
p298
sssS'version'
p299
S'3.5.1'
p300
sS'settings'
p301
S'2r\xb3&%\xe5\xc8\xdb\xd2\xad\x90\xe8cU\xbf\xb5'
p302
sS'format'
p303
I1
s.