(dp1
S'files'
p2
(dp3
S'avocado_exporters__excel'
p4
(dp5
S'index'
p6
(dp7
S'par'
p8
I1
sS'html_filename'
p9
S'avocado_exporters__excel.html'
p10
sS'name'
p11
S'avocado/exporters/_excel'
p12
sS'nums'
p13
ccopy_reg
_reconstructor
p14
(ccoverage.results
Numbers
p15
c__builtin__
object
p16
NtRp17
(dp18
S'n_files'
p19
I1
sS'n_branches'
p20
I14
sS'n_statements'
p21
I34
sS'n_excluded'
p22
I0
sS'n_missing'
p23
I3
sS'n_missing_branches'
p24
I1
sbssS'hash'
p25
S'\xdc\x1c\xbb\xb9L\xbd\xcaP>\x0b\xac\xae-\xfc\xd3O'
p26
ssS'avocado___init__'
p27
(dp28
g6
(dp29
g8
I2
sg9
S'avocado___init__.html'
p30
sg11
S'avocado/__init__'
p31
sg13
g14
(g15
g16
NtRp32
(dp33
g19
I1
sg20
I4
sg21
I10
sg22
I0
sg23
I0
sg24
I2
sbssg25
S'\x87\xc2\xc6\xba\x1e\x02b\x94\xd5\x12e\xda7\xfa\xf4\x99'
p34
ssS'avocado_management_subcommands_sync'
p35
(dp36
g6
(dp37
g8
I0
sg9
S'avocado_management_subcommands_sync.html'
p38
sg11
S'avocado/management/subcommands/sync'
p39
sg13
g14
(g15
g16
NtRp40
(dp41
g19
I1
sg20
I32
sg21
I65
sg22
I0
sg23
I65
sg24
I0
sbssg25
S'u[\xb5(\xb3\xf3\xff\x14&\x9e\xcb\xb1\xfdo\xcb\x0b'
p42
ssS'avocado_query_parser'
p43
(dp44
g6
(dp45
g8
I0
sg9
S'avocado_query_parser.html'
p46
sg11
S'avocado/query/parser'
p47
sg13
g14
(g15
g16
NtRp48
(dp49
g19
I1
sg20
I26
sg21
I42
sg22
I0
sg23
I0
sg24
I0
sbssg25
S'J?\xf7\xc8\xdd\xb8\xaa\x16Z\x8b\xb3\x9b\x93\xee\xc2{'
p50
ssS'avocado_management___init__'
p51
(dp52
g6
(dp53
g8
I0
sg9
S'avocado_management___init__.html'
p54
sg11
S'avocado/management/__init__'
p55
sg13
g14
(g15
g16
NtRp56
(dp57
g19
I1
sg20
I0
sg21
I0
sg22
I0
sg23
I0
sg24
I0
sbssg25
S'\xbf/\x83L\xc9/\xc0\x9a\xf0p\xa8h\xff\x10T5'
p58
ssS'avocado_management_commands_avocado'
p59
(dp60
g6
(dp61
g8
I0
sg9
S'avocado_management_commands_avocado.html'
p62
sg11
S'avocado/management/commands/avocado'
p63
sg13
g14
(g15
g16
NtRp64
(dp65
g19
I1
sg20
I12
sg21
I49
sg22
I0
sg23
I49
sg24
I0
sbssg25
S'S\xd5et\x08\xff\xc0\xb5\xa2Dv\\\xa8\xce\x17?'
p66
ssS'avocado_core_loader'
p67
(dp68
g6
(dp69
g8
I5
sg9
S'avocado_core_loader.html'
p70
sg11
S'avocado/core/loader'
p71
sg13
g14
(g15
g16
NtRp72
(dp73
g19
I1
sg20
I26
sg21
I55
sg22
I0
sg23
I7
sg24
I5
sbssg25
S'\x88\x16\xb4\xca\xc5*hnT\xb9\xfd\r\x0b]x\x9b'
p74
ssS'avocado_models'
p75
(dp76
g6
(dp77
g8
I3
sg9
S'avocado_models.html'
p78
sg11
S'avocado/models'
p79
sg13
g14
(g15
g16
NtRp80
(dp81
g19
I1
sg20
I20
sg21
I118
sg22
I6
sg23
I25
sg24
I3
sbssg25
S'\xe3]\xb7\xb33<\x9d\xa94_]\x983\xc51\xdb'
p82
ssS'avocado_query_operators'
p83
(dp84
g6
(dp85
g8
I0
sg9
S'avocado_query_operators.html'
p86
sg11
S'avocado/query/operators'
p87
sg13
g14
(g15
g16
NtRp88
(dp89
g19
I1
sg20
I12
sg21
I160
sg22
I8
sg23
I0
sg24
I0
sbssg25
S'\x19\xcb\xff\xa2\xa7>\x13\xc2\x96\xdfY\xb9\xfer\x1eR'
p90
ssS'avocado_core_mixins'
p91
(dp92
g6
(dp93
g8
I0
sg9
S'avocado_core_mixins.html'
p94
sg11
S'avocado/core/mixins'
p95
sg13
g14
(g15
g16
NtRp96
(dp97
g19
I1
sg20
I6
sg21
I28
sg22
I0
sg23
I28
sg24
I0
sbssg25
S",\xbfk\x9fq\xeb\x0e7\xc2B\x0bN\xd4\xc0\xcd'"
p98
ssS'avocado_management_subcommands___init__'
p99
(dp100
g6
(dp101
g8
I0
sg9
S'avocado_management_subcommands___init__.html'
p102
sg11
S'avocado/management/subcommands/__init__'
p103
sg13
g14
(g15
g16
NtRp104
(dp105
g19
I1
sg20
I0
sg21
I0
sg22
I0
sg23
I0
sg24
I0
sbssg25
S'\xe5P\x11)^\xf4>1D.\x0e\x0b\xa1\xf8[+'
p106
ssS'avocado_managers'
p107
(dp108
g6
(dp109
g8
I1
sg9
S'avocado_managers.html'
p110
sg11
S'avocado/managers'
p111
sg13
g14
(g15
g16
NtRp112
(dp113
g19
I1
sg20
I6
sg21
I35
sg22
I0
sg23
I11
sg24
I1
sbssg25
S'I\x97N\xc6\xd6\xff\x00}\x8a" %\xc4\xda_\x93'
p114
ssS'avocado_search_indexes'
p115
(dp116
g6
(dp117
g8
I0
sg9
S'avocado_search_indexes.html'
p118
sg11
S'avocado/search_indexes'
p119
sg13
g14
(g15
g16
NtRp120
(dp121
g19
I1
sg20
I0
sg21
I8
sg22
I0
sg23
I0
sg24
I0
sbssg25
S'\t9\xfe\xb0\x82?e\x95\xbd\xb4\xbf\xc0\xacy\x99j'
p122
ssS'avocado_core_cache'
p123
(dp124
g6
(dp125
g8
I3
sg9
S'avocado_core_cache.html'
p126
sg11
S'avocado/core/cache'
p127
sg13
g14
(g15
g16
NtRp128
(dp129
g19
I1
sg20
I14
sg21
I47
sg22
I0
sg23
I5
sg24
I3
sbssg25
S'\x03\x866\x13\xbe\xc6\xf6\xa3 \x00\xa0Dh\xfc\xb0\xb3'
p130
ssS'avocado_exporters__sas'
p131
(dp132
g6
(dp133
g8
I3
sg9
S'avocado_exporters__sas.html'
p134
sg11
S'avocado/exporters/_sas'
p135
sg13
g14
(g15
g16
NtRp136
(dp137
g19
I1
sg20
I18
sg21
I90
sg22
I0
sg23
I17
sg24
I3
sbssg25
S'\r\xb7\x9d\xabw)mt_\xa6\xa0\xdf\xbf\x8bv\x1a'
p138
ssS'avocado_coded_handlers'
p139
(dp140
g6
(dp141
g8
I0
sg9
S'avocado_coded_handlers.html'
p142
sg11
S'avocado/coded/handlers'
p143
sg13
g14
(g15
g16
NtRp144
(dp145
g19
I1
sg20
I0
sg21
I0
sg22
I0
sg23
I0
sg24
I0
sbssg25
S'\xe5P\x11)^\xf4>1D.\x0e\x0b\xa1\xf8[+'
p146
ssS'avocado_query___init__'
p147
(dp148
g6
(dp149
g8
I0
sg9
S'avocado_query___init__.html'
p150
sg11
S'avocado/query/__init__'
p151
sg13
g14
(g15
g16
NtRp152
(dp153
g19
I1
sg20
I0
sg21
I0
sg22
I0
sg23
I0
sg24
I0
sbssg25
S'\xbf/\x83L\xc9/\xc0\x9a\xf0p\xa8h\xff\x10T5'
p154
ssS'avocado_core_models'
p155
(dp156
g6
(dp157
g8
I0
sg9
S'avocado_core_models.html'
p158
sg11
S'avocado/core/models'
p159
sg13
g14
(g15
g16
NtRp160
(dp161
g19
I1
sg20
I4
sg21
I26
sg22
I2
sg23
I8
sg24
I0
sbssg25
S'\x1du\x0f/\xdc\x02\xdd\x06\xf5\xd1\xc5\xff\xec\xd2^\xc5'
p162
ssS'avocado_query_translators'
p163
(dp164
g6
(dp165
g8
I10
sg9
S'avocado_query_translators.html'
p166
sg11
S'avocado/query/translators'
p167
sg13
g14
(g15
g16
NtRp168
(dp169
g19
I1
sg20
I38
sg21
I89
sg22
I0
sg23
I29
sg24
I10
sbssg25
S'k\x12\xd6\x02i\xdf\xf2g\x16\xef"\xd6\x9c\x89\x9e\xbd'
p170
ssS'avocado_query_nodes'
p171
(dp172
g6
(dp173
g8
I0
sg9
S'avocado_query_nodes.html'
p174
sg11
S'avocado/query/nodes'
p175
sg13
g14
(g15
g16
NtRp176
(dp177
g19
I1
sg20
I60
sg21
I126
sg22
I0
sg23
I126
sg24
I0
sbssg25
S'\x127g*\\\x96I\xbc+\x81\xfe\xd8&\xac\xa3I'
p178
ssS'avocado_management_commands___init__'
p179
(dp180
g6
(dp181
g8
I0
sg9
S'avocado_management_commands___init__.html'
p182
sg11
S'avocado/management/commands/__init__'
p183
sg13
g14
(g15
g16
NtRp184
(dp185
g19
I1
sg20
I0
sg21
I0
sg22
I0
sg23
I0
sg24
I0
sbssg25
S'\xe5P\x11)^\xf4>1D.\x0e\x0b\xa1\xf8[+'
p186
ssS'avocado_core_utils'
p187
(dp188
g6
(dp189
g8
I3
sg9
S'avocado_core_utils.html'
p190
sg11
S'avocado/core/utils'
p191
sg13
g14
(g15
g16
NtRp192
(dp193
g19
I1
sg20
I6
sg21
I15
sg22
I0
sg23
I3
sg24
I3
sbssg25
S'\x18\x8a\xd6\xa7\x0e\xbc\xde\x8aI\xedo\xbc\x0c\xc7\xfbg'
p194
ssS'avocado_exporters___init__'
p195
(dp196
g6
(dp197
g8
I1
sg9
S'avocado_exporters___init__.html'
p198
sg11
S'avocado/exporters/__init__'
p199
sg13
g14
(g15
g16
NtRp200
(dp201
g19
I1
sg20
I2
sg21
I17
sg22
I0
sg23
I2
sg24
I1
sbssg25
S'q\xeb\x05L\x90\xd1\xc8\xf2c\xb3\xb8\xe1\x9b#\xc5\xd9'
p202
ssS'avocado_coded_models'
p203
(dp204
g6
(dp205
g8
I0
sg9
S'avocado_coded_models.html'
p206
sg11
S'avocado/coded/models'
p207
sg13
g14
(g15
g16
NtRp208
(dp209
g19
I1
sg20
I0
sg21
I14
sg22
I0
sg23
I1
sg24
I0
sbssg25
S'\xee\xad\x1e(\xf6\xff\x11\xfa\xbc\xab\x04\x15\x04\xf4\xfc)'
p210
ssS'avocado_core___init__'
p211
(dp212
g6
(dp213
g8
I0
sg9
S'avocado_core___init__.html'
p214
sg11
S'avocado/core/__init__'
p215
sg13
g14
(g15
g16
NtRp216
(dp217
g19
I1
sg20
I0
sg21
I0
sg22
I0
sg23
I0
sg24
I0
sbssg25
S'\xbf/\x83L\xc9/\xc0\x9a\xf0p\xa8h\xff\x10T5'
p218
ssS'avocado_exporters__base'
p219
(dp220
g6
(dp221
g8
I1
sg9
S'avocado_exporters__base.html'
p222
sg11
S'avocado/exporters/_base'
p223
sg13
g14
(g15
g16
NtRp224
(dp225
g19
I1
sg20
I16
sg21
I43
sg22
I1
sg23
I8
sg24
I1
sbssg25
S'\xb6\xbaM\x0c\xb1z\xa6K\x9bi>\x10\x9d\xad\xcfT'
p226
ssS'avocado_search_sites'
p227
(dp228
g6
(dp229
g8
I0
sg9
S'avocado_search_sites.html'
p230
sg11
S'avocado/search_sites'
p231
sg13
g14
(g15
g16
NtRp232
(dp233
g19
I1
sg20
I0
sg21
I2
sg22
I0
sg23
I0
sg24
I0
sbssg25
S'\x8a\x8e\x1e\xe0B\xd7i\xc0y\x08\xfa/\xaf\xf3V\xcf'
p234
ssS'avocado_formatters'
p235
(dp236
g6
(dp237
g8
I8
sg9
S'avocado_formatters.html'
p238
sg11
S'avocado/formatters'
p239
sg13
g14
(g15
g16
NtRp240
(dp241
g19
I1
sg20
I32
sg21
I74
sg22
I2
sg23
I15
sg24
I9
sbssg25
S'\xda\xbf.\xdd\xe1\x87\xf4=\x10\xe9\xa7kt\xb8}a'
p242
ssS'avocado_conf_global_settings'
p243
(dp244
g6
(dp245
g8
I0
sg9
S'avocado_conf_global_settings.html'
p246
sg11
S'avocado/conf/global_settings'
p247
sg13
g14
(g15
g16
NtRp248
(dp249
g19
I1
sg20
I0
sg21
I4
sg22
I0
sg23
I0
sg24
I0
sbssg25
S'D[\x99\x17:\xa4\xb9;\xf8f\xdc\xd6\x8f\xe7\xcf\x1a'
p250
ssS'avocado_core_managers'
p251
(dp252
g6
(dp253
g8
I1
sg9
S'avocado_core_managers.html'
p254
sg11
S'avocado/core/managers'
p255
sg13
g14
(g15
g16
NtRp256
(dp257
g19
I1
sg20
I6
sg21
I17
sg22
I0
sg23
I7
sg24
I1
sbssg25
S'o\xb0\xcb\x83>?\x84\x9f\xfc(\x08&[\xad\x97\xef'
p258
ssS'avocado_coded___init__'
p259
(dp260
g6
(dp261
g8
I0
sg9
S'avocado_coded___init__.html'
p262
sg11
S'avocado/coded/__init__'
p263
sg13
g14
(g15
g16
NtRp264
(dp265
g19
I1
sg20
I0
sg21
I0
sg22
I0
sg23
I0
sg24
I0
sbssg25
S'\xbf/\x83L\xc9/\xc0\x9a\xf0p\xa8h\xff\x10T5'
p266
ssS'avocado_exporters__r'
p267
(dp268
g6
(dp269
g8
I2
sg9
S'avocado_exporters__r.html'
p270
sg11
S'avocado/exporters/_r'
p271
sg13
g14
(g15
g16
NtRp272
(dp273
g19
I1
sg20
I16
sg21
I66
sg22
I0
sg23
I17
sg24
I2
sbssg25
S'\xd8\xc8\xe0\x08\xd8iOf7\xe4\x06%\xe8\xb6 D'
p274
ssS'avocado_management_subcommands_orphaned'
p275
(dp276
g6
(dp277
g8
I0
sg9
S'avocado_management_subcommands_orphaned.html'
p278
sg11
S'avocado/management/subcommands/orphaned'
p279
sg13
g14
(g15
g16
NtRp280
(dp281
g19
I1
sg20
I20
sg21
I36
sg22
I0
sg23
I36
sg24
I0
sbssg25
S"mW\x0fa\xb8A\x9e\x0c\x18u$'\xdd\xe7L\xdf"
p282
ssS'avocado_conf___init__'
p283
(dp284
g6
(dp285
g8
I1
sg9
S'avocado_conf___init__.html'
p286
sg11
S'avocado/conf/__init__'
p287
sg13
g14
(g15
g16
NtRp288
(dp289
g19
I1
sg20
I8
sg21
I15
sg22
I0
sg23
I2
sg24
I1
sbssg25
S'\xf1\xa6\xc2\x9a\x12%Im\x84~\x9b\xa3\xa3\x02\xa7\xed'
p290
ssS'avocado_exporters__csv'
p291
(dp292
g6
(dp293
g8
I0
sg9
S'avocado_exporters__csv.html'
p294
sg11
S'avocado/exporters/_csv'
p295
sg13
g14
(g15
g16
NtRp296
(dp297
g19
I1
sg20
I8
sg21
I17
sg22
I0
sg23
I0
sg24
I0
sbssg25
S'\xb4l\xa6n\xc2\x9aD\xf8\\\xef\xf0\x04mn\xb6\xa4'
p298
ssS'avocado_exporters__json'
p299
(dp300
g6
(dp301
g8
I1
sg9
S'avocado_exporters__json.html'
p302
sg11
S'avocado/exporters/_json'
p303
sg13
g14
(g15
g16
NtRp304
(dp305
g19
I1
sg20
I4
sg21
I14
sg22
I0
sg23
I1
sg24
I1
sbssg25
S'\xee\xc3\xa8X\xc0\xcb\x93K\xe9\x05\x94R+\xb6r\xe9'
p306
ssS'avocado_core_binning'
p307
(dp308
g6
(dp309
g8
I7
sg9
S'avocado_core_binning.html'
p310
sg11
S'avocado/core/binning'
p311
sg13
g14
(g15
g16
NtRp312
(dp313
g19
I1
sg20
I39
sg21
I84
sg22
I0
sg23
I46
sg24
I7
sbssg25
S'j\xceP\xb6\x80\x18\x95\xf72\xd75\xbaz\xcf\xf0\x91'
p314
sssS'version'
p315
S'3.5.1'
p316
sS'settings'
p317
S'2r\xb3&%\xe5\xc8\xdb\xd2\xad\x90\xe8cU\xbf\xb5'
p318
sS'format'
p319
I1
s.